target datalayout = "e-m:e-p270:32:32-p271:32:32-p272:64:64-i64:64-i128:128-f80:128-n8:16:32:64-S128"
target triple = "x86_64-pc-linux-gnu"

%struct.AVRational = type { i32, i32 }
%struct.AVCodecContext = type { ptr, i32, i32, ptr, i32, i32, ptr, ptr, ptr, i64, i32, i32, ptr, i32, %struct.AVRational, %struct.AVRational, %struct.AVRational, i32, i32, i32, i32, i32, %struct.AVRational, i32, i32, i32, i32, i32, i32, i32, i32, i32, i32, i32, ptr, ptr, i32, float, float, float, float, float, float, float, float, float, i32, i32, i32, i32, i32, i32, i32, i32, i32, i32, i32, i32, ptr, ptr, ptr, i32, i32, i32, i32, i32, i32, i32, i32, i32, i32, %struct.AVChannelLayout, i32, i32, i32, i32, i32, i32, i32, i32, ptr, i32, i32, i32, float, float, i32, i32, i32, i32, i32, ptr, i64, i64, float, float, i32, i32, ptr, ptr, i32, i32, i32, i32, i32, ptr, ptr, ptr, ptr, i32, i32, [8 x i64], i32, i32, i32, i32, i32, i32, i32, ptr, ptr, i32, i32, i32, i32, i32, i32, i32, i32, i32, i32, ptr, ptr, i32, i32, ptr, ptr, ptr, ptr, i32, i32, i64, i32, i32, i64, ptr, i64, ptr, i32, ptr, i32 }
%struct.AVChannelLayout = type { i32, i32, %union.anon, ptr }
%union.anon = type { i64 }
%union.AVRefStructOpaque = type { ptr }
%struct.ProgressInternal = type { %struct.ThreadProgress, ptr }
%struct.ThreadProgress = type { i32, i32, %union.pthread_mutex_t, %union.pthread_cond_t }
%union.pthread_mutex_t = type { %struct.__pthread_mutex_s }
%struct.__pthread_mutex_s = type { i32, i32, i32, i32, i32, i16, i16, %struct.__pthread_internal_list }
%struct.__pthread_internal_list = type { ptr, ptr }
%union.pthread_cond_t = type { %struct.__pthread_cond_s }
%struct.__pthread_cond_s = type { %union.__atomic_wide_counter, %union.__atomic_wide_counter, [2 x i32], [2 x i32], i32, i32, [2 x i32] }
%union.__atomic_wide_counter = type { i64 }

; Function Attrs: cold nounwind optsize uwtable
define internal i32 @progress_frame_pool_init_cb(ptr %0, ptr noundef %1) #9 {
  %3 = alloca i32, align 4
  %4 = alloca %union.AVRefStructOpaque, align 8
  %5 = alloca ptr, align 8
  %6 = alloca ptr, align 8
  %7 = alloca ptr, align 8
  %8 = alloca i32, align 4
  %9 = alloca i32, align 4
  %10 = getelementptr inbounds nuw %union.AVRefStructOpaque, ptr %4, i32 0, i32 0
  store ptr %0, ptr %10, align 8
  store ptr %1, ptr %5, align 8, !tbaa !142
  call void @llvm.lifetime.start.p0(i64 8, ptr %6) #11
  %11 = load ptr, ptr %4, align 8, !tbaa !63
  store ptr %11, ptr %6, align 8, !tbaa !4
  call void @llvm.lifetime.start.p0(i64 8, ptr %7) #11
  %12 = load ptr, ptr %5, align 8, !tbaa !142
  store ptr %12, ptr %7, align 8, !tbaa !298
  call void @llvm.lifetime.start.p0(i64 4, ptr %8) #11
  %13 = load ptr, ptr %7, align 8, !tbaa !298
  %14 = getelementptr inbounds nuw %struct.ProgressInternal, ptr %13, i32 0, i32 0
  %15 = load ptr, ptr %6, align 8, !tbaa !4
  %16 = getelementptr inbounds nuw %struct.AVCodecContext, ptr %15, i32 0, i32 118
  %17 = load i32, ptr %16, align 8, !tbaa !97
  %18 = and i32 %17, 1
  %19 = call i32 @ff_thread_progress_init(ptr noundef %14, i32 noundef %18)
  store i32 %19, ptr %8, align 4, !tbaa !41
  %20 = load i32, ptr %8, align 4, !tbaa !41
  %21 = icmp slt i32 %20, 0
  br i1 %21, label %22, label %24

22:                                               ; preds = %2
  %23 = load i32, ptr %8, align 4, !tbaa !41
  store i32 %23, ptr %3, align 4
  store i32 1, ptr %9, align 4
  br label %34

24:                                               ; preds = %2
  %25 = call ptr @av_frame_alloc()
  %26 = load ptr, ptr %7, align 8, !tbaa !298
  %27 = getelementptr inbounds nuw %struct.ProgressInternal, ptr %26, i32 0, i32 1
  store ptr %25, ptr %27, align 8, !tbaa !279
  %28 = load ptr, ptr %7, align 8, !tbaa !298
  %29 = getelementptr inbounds nuw %struct.ProgressInternal, ptr %28, i32 0, i32 1
  %30 = load ptr, ptr %29, align 8, !tbaa !279
  %31 = icmp ne ptr %30, null
  br i1 %31, label %33, label %32

32:                                               ; preds = %24
  store i32 -12, ptr %3, align 4
  store i32 1, ptr %9, align 4
  br label %34

33:                                               ; preds = %24
  store i32 0, ptr %3, align 4
  store i32 1, ptr %9, align 4
  br label %34

34:                                               ; preds = %33, %32, %22
  call void @llvm.lifetime.end.p0(i64 4, ptr %8) #11
  call void @llvm.lifetime.end.p0(i64 8, ptr %7) #11
  call void @llvm.lifetime.end.p0(i64 8, ptr %6) #11
  %35 = load i32, ptr %3, align 4
  ret i32 %35
}