; Function Attrs: cold nounwind optsize uwtable
define internal range(i32 -2147483648, 1) i32 @progress_frame_pool_init_cb(ptr readonly captures(none) %0, ptr noundef %1) #7 {
  %3 = getelementptr inbounds nuw i8, ptr %0, i64 664
  %4 = load i32, ptr %3, align 8, !tbaa !73
  %5 = and i32 %4, 1
  %6 = tail call i32 @ff_thread_progress_init(ptr noundef %1, i32 noundef %5) #10
  %7 = icmp slt i32 %6, 0
  br i1 %7, label %11, label %8

8:                                                ; preds = %2
  %9 = tail call ptr @av_frame_alloc() #10
  %10 = getelementptr inbounds nuw i8, ptr %1, i64 96
  store ptr %9, ptr %10, align 8, !tbaa !252
  %.not = icmp eq ptr %9, null
  %. = select i1 %.not, i32 -12, i32 0
  br label %11

11:                                               ; preds = %8, %2
  %.0 = phi i32 [ %6, %2 ], [ %., %8 ]
  ret i32 %.0
}